TN:
SF:/home/oyandut/CoR/test/main.cpp
FN:20,_ZN3CoR5SetUpEv
FN:42,_ZN21CoR_AdditionTest_TestC2Ev
FN:42,_ZN21CoR_AdditionTest_TestD2Ev
FN:42,_ZN21CoR_AdditionTest_TestD0Ev
FN:42,_ZN21CoR_AdditionTest_Test8TestBodyEv
FN:50,_ZN27CoR_MultiplicationTest_TestC2Ev
FN:50,_ZN27CoR_MultiplicationTest_TestD2Ev
FN:50,_ZN27CoR_MultiplicationTest_TestD0Ev
FN:50,_ZN27CoR_MultiplicationTest_Test8TestBodyEv
FN:58,_ZN24CoR_SubtractionTest_TestC2Ev
FN:58,_ZN24CoR_SubtractionTest_TestD0Ev
FN:58,_ZN24CoR_SubtractionTest_Test8TestBodyEv
FN:58,_ZN24CoR_SubtractionTest_TestD2Ev
FN:66,_ZN21CoR_DivisionTest_TestD2Ev
FN:66,_ZN21CoR_DivisionTest_TestD0Ev
FN:66,_ZN21CoR_DivisionTest_TestC2Ev
FN:66,_ZN21CoR_DivisionTest_Test8TestBodyEv
FN:74,_ZN19CoR_ModuloTest_TestD0Ev
FN:74,_ZN19CoR_ModuloTest_TestC2Ev
FN:74,_ZN19CoR_ModuloTest_TestD2Ev
FN:74,_ZN19CoR_ModuloTest_Test8TestBodyEv
FNDA:1,_ZN21CoR_AdditionTest_Test8TestBodyEv
FNDA:1,_ZN27CoR_MultiplicationTest_Test8TestBodyEv
FNDA:1,_ZN27CoR_MultiplicationTest_TestD0Ev
FNDA:1,_ZN24CoR_SubtractionTest_TestD2Ev
FNDA:1,_ZN21CoR_AdditionTest_TestD0Ev
FNDA:1,_ZN24CoR_SubtractionTest_Test8TestBodyEv
FNDA:1,_ZN19CoR_ModuloTest_Test8TestBodyEv
FNDA:1,_ZN21CoR_AdditionTest_TestD2Ev
FNDA:1,_ZN27CoR_MultiplicationTest_TestD2Ev
FNDA:1,_ZN24CoR_SubtractionTest_TestD0Ev
FNDA:1,_ZN21CoR_AdditionTest_TestC2Ev
FNDA:1,_ZN21CoR_DivisionTest_TestC2Ev
FNDA:1,_ZN21CoR_DivisionTest_Test8TestBodyEv
FNDA:1,_ZN27CoR_MultiplicationTest_TestC2Ev
FNDA:1,_ZN19CoR_ModuloTest_TestD2Ev
FNDA:5,_ZN3CoR5SetUpEv
FNDA:1,_ZN24CoR_SubtractionTest_TestC2Ev
FNDA:1,_ZN21CoR_DivisionTest_TestD0Ev
FNDA:1,_ZN21CoR_DivisionTest_TestD2Ev
FNDA:1,_ZN19CoR_ModuloTest_TestD0Ev
FNDA:1,_ZN19CoR_ModuloTest_TestC2Ev
FNF:21
FNH:21
DA:20,5
DA:23,5
DA:24,5
DA:25,5
DA:26,5
DA:27,5
DA:28,5
DA:29,5
DA:42,4
DA:44,1
DA:45,1
DA:46,1
DA:47,1
DA:50,4
DA:52,1
DA:53,1
DA:54,1
DA:55,1
DA:58,4
DA:60,1
DA:61,1
DA:62,1
DA:63,1
DA:66,4
DA:68,1
DA:69,1
DA:70,1
DA:71,1
DA:74,4
DA:76,1
DA:77,1
DA:78,1
DA:79,1
LF:33
LH:33
end_of_record
TN:
SF:/usr/local/include/gtest/gtest-assertion-result.h
FN:174,_ZNK7testing15AssertionResultcvbEv
FN:183,_ZNK7testing15AssertionResult7messageEv
FN:187,_ZNK7testing15AssertionResult15failure_messageEv
FNDA:5,_ZNK7testing15AssertionResultcvbEv
FNDA:0,_ZNK7testing15AssertionResult15failure_messageEv
FNDA:0,_ZNK7testing15AssertionResult7messageEv
FNF:3
FNH:1
DA:174,5
DA:183,0
DA:184,0
DA:187,0
LF:4
LH:1
end_of_record
TN:
SF:/usr/local/include/gtest/gtest.h
FN:256,_ZN7testing4Test14SetUpTestSuiteEv
FN:264,_ZN7testing4Test17TearDownTestSuiteEv
FN:269,_ZN7testing4Test16TearDownTestCaseEv
FN:270,_ZN7testing4Test13SetUpTestCaseEv
FN:357,_ZN7testing4Test5SetupEv
FN:1567,_ZN7testing8internal24CmpHelperFloatingPointEQIfEENS_15AssertionResultEPKcS4_T_S5_
FNDA:0,_ZN7testing4Test16TearDownTestCaseEv
FNDA:5,_ZN7testing8internal24CmpHelperFloatingPointEQIfEENS_15AssertionResultEPKcS4_T_S5_
FNDA:0,_ZN7testing4Test14SetUpTestSuiteEv
FNDA:0,_ZN7testing4Test17TearDownTestSuiteEv
FNDA:0,_ZN7testing4Test13SetUpTestCaseEv
FNDA:0,_ZN7testing4Test5SetupEv
FNF:6
FNH:1
DA:256,0
DA:264,0
DA:269,0
DA:270,0
DA:357,0
DA:1567,5
DA:1570,5
DA:1572,5
DA:1573,5
DA:1576,0
DA:1577,0
DA:1578,0
DA:1580,0
DA:1581,0
DA:1582,0
DA:1586,0
LF:16
LH:4
end_of_record
TN:
SF:/usr/local/include/gtest/internal/gtest-internal.h
FN:294,_ZN7testing8internal13FloatingPointIfEC2ERKf
FN:316,_ZNK7testing8internal13FloatingPointIfE13exponent_bitsEv
FN:319,_ZNK7testing8internal13FloatingPointIfE13fraction_bitsEv
FN:325,_ZNK7testing8internal13FloatingPointIfE6is_nanEv
FN:337,_ZNK7testing8internal13FloatingPointIfE12AlmostEqualsERKS2_
FN:368,_ZN7testing8internal13FloatingPointIfE24SignAndMagnitudeToBiasedERKj
FN:380,_ZN7testing8internal13FloatingPointIfE38DistanceBetweenSignAndMagnitudeNumbersERKjS4_
FN:419,_ZN7testing8internal9GetTypeIdI3CoREEPKvv
FN:438,_ZN7testing8internal15TestFactoryBaseD2Ev
FN:438,_ZN7testing8internal15TestFactoryBaseD0Ev
FN:445,_ZN7testing8internal15TestFactoryBaseC2Ev
FN:457,_ZN7testing8internal15TestFactoryImplI27CoR_MultiplicationTest_TestE10CreateTestEv
FN:457,_ZN7testing8internal15TestFactoryImplI21CoR_DivisionTest_TestE10CreateTestEv
FN:457,_ZN7testing8internal15TestFactoryImplI19CoR_ModuloTest_TestE10CreateTestEv
FN:457,_ZN7testing8internal15TestFactoryImplI24CoR_SubtractionTest_TestE10CreateTestEv
FN:457,_ZN7testing8internal15TestFactoryImplI21CoR_AdditionTest_TestE10CreateTestEv
FN:478,_ZN7testing8internal12CodeLocationC2ERKNSt7__cxx1112basic_stringIcSt11char_traitsIcESaIcEEEi
FN:491,_ZN7testing8internal19GetNotDefaultOrNullEPFvvES2_
FN:506,_ZN7testing8internal16SuiteApiResolverI3CoRE19GetSetUpCaseOrSuiteEPKci
FN:527,_ZN7testing8internal16SuiteApiResolverI3CoRE22GetTearDownCaseOrSuiteEPKci
FNDA:5,_ZN7testing8internal16SuiteApiResolverI3CoRE22GetTearDownCaseOrSuiteEPKci
FNDA:5,_ZN7testing8internal15TestFactoryBaseD2Ev
FNDA:5,_ZN7testing8internal9GetTypeIdI3CoREEPKvv
FNDA:10,_ZN7testing8internal13FloatingPointIfEC2ERKf
FNDA:1,_ZN7testing8internal15TestFactoryImplI21CoR_AdditionTest_TestE10CreateTestEv
FNDA:10,_ZNK7testing8internal13FloatingPointIfE13exponent_bitsEv
FNDA:1,_ZN7testing8internal15TestFactoryImplI24CoR_SubtractionTest_TestE10CreateTestEv
FNDA:5,_ZN7testing8internal15TestFactoryBaseC2Ev
FNDA:0,_ZN7testing8internal15TestFactoryBaseD0Ev
FNDA:5,_ZN7testing8internal13FloatingPointIfE38DistanceBetweenSignAndMagnitudeNumbersERKjS4_
FNDA:5,_ZN7testing8internal16SuiteApiResolverI3CoRE19GetSetUpCaseOrSuiteEPKci
FNDA:10,_ZN7testing8internal13FloatingPointIfE24SignAndMagnitudeToBiasedERKj
FNDA:1,_ZN7testing8internal15TestFactoryImplI27CoR_MultiplicationTest_TestE10CreateTestEv
FNDA:5,_ZNK7testing8internal13FloatingPointIfE12AlmostEqualsERKS2_
FNDA:1,_ZN7testing8internal15TestFactoryImplI19CoR_ModuloTest_TestE10CreateTestEv
FNDA:5,_ZN7testing8internal12CodeLocationC2ERKNSt7__cxx1112basic_stringIcSt11char_traitsIcESaIcEEEi
FNDA:10,_ZNK7testing8internal13FloatingPointIfE6is_nanEv
FNDA:1,_ZN7testing8internal15TestFactoryImplI21CoR_DivisionTest_TestE10CreateTestEv
FNDA:0,_ZNK7testing8internal13FloatingPointIfE13fraction_bitsEv
FNDA:20,_ZN7testing8internal19GetNotDefaultOrNullEPFvvES2_
FNF:20
FNH:18
DA:294,10
DA:316,10
DA:319,0
DA:325,10
DA:328,10
DA:337,5
DA:340,5
DA:342,5
DA:343,5
DA:368,10
DA:369,10
DA:371,2
DA:374,8
DA:380,5
DA:382,5
DA:383,5
DA:384,5
DA:419,5
DA:424,5
DA:438,5
DA:445,5
DA:457,5
DA:478,5
DA:479,5
DA:491,20
DA:493,20
DA:506,5
DA:510,5
DA:512,5
DA:514,5
DA:517,0
DA:519,5
DA:527,5
DA:531,5
DA:533,5
DA:535,5
DA:538,0
DA:540,5
LF:38
LH:35
end_of_record
TN:
SF:/usr/local/include/gtest/internal/gtest-port.h
FN:1042,_ZN7testing8internal8GTestLog9GetStreamEv
FNDA:0,_ZN7testing8internal8GTestLog9GetStreamEv
FNF:1
FNH:0
DA:1042,0
LF:1
LH:0
end_of_record
